target datalayout = "e-m:e-p270:32:32-p271:32:32-p272:64:64-i64:64-i128:128-f80:128-n8:16:32:64-S128"
target triple = "x86_64-pc-linux-gnu"

%struct.reassembly_table = type { ptr, ptr, ptr, ptr, ptr }
%struct.reassembly_table_functions = type { ptr, ptr, ptr, ptr, ptr, ptr }

@proto_register_openvpn.ett = internal global [7 x ptr] [ptr @ett_openvpn, ptr @ett_openvpn_type, ptr @ett_openvpn_data, ptr @ett_openvpn_wkc, ptr @ett_openvpn_packetarray, ptr @ett_openvpn_fragment, ptr @ett_openvpn_fragments], align 16
@.str.54 = private unnamed_addr constant [17 x i8] c"OpenVPN Protocol\00", align 1
@.str.55 = private unnamed_addr constant [8 x i8] c"OpenVPN\00", align 1
@.str.56 = private unnamed_addr constant [8 x i8] c"openvpn\00", align 1
@proto_openvpn = internal global i32 0, align 4
@.str.57 = private unnamed_addr constant [12 x i8] c"openvpn.udp\00", align 1
@openvpn_udp_handle = internal global ptr null, align 8
@.str.58 = private unnamed_addr constant [12 x i8] c"openvpn.tcp\00", align 1
@openvpn_tcp_handle = internal global ptr null, align 8
@msg_reassembly_table = internal global %struct.reassembly_table zeroinitializer, align 8
@addresses_reassembly_table_functions = external constant %struct.reassembly_table_functions, align 8
@.str.59 = private unnamed_addr constant [28 x i8] c"tls_auth_detection_override\00", align 1
@.str.60 = private unnamed_addr constant [28 x i8] c"override tls-auth detection\00", align 1
@.str.61 = private unnamed_addr constant [92 x i8] c"If tls-auth detection fails, you can choose to override detection and set tls-auth yourself\00", align 1
@pref_tls_auth_override = internal global i8 0, align 1
@.str.62 = private unnamed_addr constant [10 x i8] c"tls_crypt\00", align 1
@.str.63 = private unnamed_addr constant [17 x i8] c"assume tls-crypt\00", align 1
@.str.64 = private unnamed_addr constant [37 x i8] c"Assume the connection uses tls-crypt\00", align 1
@pref_tls_crypt_override = internal global i8 0, align 1
@.str.65 = private unnamed_addr constant [9 x i8] c"tls_auth\00", align 1
@.str.66 = private unnamed_addr constant [17 x i8] c"--tls-auth used?\00", align 1
@.str.67 = private unnamed_addr constant [85 x i8] c"If the parameter --tls-auth is used, the following preferences must also be defined.\00", align 1
@pref_tls_auth = internal global i8 0, align 1
@.str.68 = private unnamed_addr constant [19 x i8] c"tls_auth_hmac_size\00", align 1
@.str.69 = private unnamed_addr constant [33 x i8] c"size of the HMAC header in bytes\00", align 1
@.str.70 = private unnamed_addr constant [230 x i8] c"If the parameter --tls-auth is used, a HMAC header is being inserted.\0AThe default HMAC algorithm is SHA-1 which generates a 160 bit HMAC, therefore 20 bytes should be ok.\0AThe value must be between 20 (160 bits) and 64 (512 bits).\00", align 1
@tls_auth_hmac_size = internal global i32 20, align 4
@.str.71 = private unnamed_addr constant [12 x i8] c"long_format\00", align 1
@.str.72 = private unnamed_addr constant [68 x i8] c"packet-id for replay protection includes optional time_t timestamp?\00", align 1
@pref_long_format = internal global i8 1, align 1

; Function Attrs: null_pointer_is_valid sspstrong uwtable
define hidden void @proto_register_openvpn() #0 {
  %1 = alloca ptr, align 8
  call void @llvm.lifetime.start.p0(i64 8, ptr %1) #5
  %2 = call i32 @proto_register_protocol(ptr noundef @.str.54, ptr noundef @.str.55, ptr noundef @.str.56)
  store i32 %2, ptr @proto_openvpn, align 4
  %3 = load i32, ptr @proto_openvpn, align 4
  call void @proto_register_field_array(i32 noundef %3, ptr noundef @proto_register_openvpn.hf, i32 noundef 27)
  call void @proto_register_subtree_array(ptr noundef @proto_register_openvpn.ett, i32 noundef 7)
  %4 = load i32, ptr @proto_openvpn, align 4
  %5 = call ptr @register_dissector(ptr noundef @.str.57, ptr noundef @dissect_openvpn_udp, i32 noundef %4)
  store ptr %5, ptr @openvpn_udp_handle, align 8
  %6 = load i32, ptr @proto_openvpn, align 4
  %7 = call ptr @register_dissector(ptr noundef @.str.58, ptr noundef @dissect_openvpn_tcp, i32 noundef %6)
  store ptr %7, ptr @openvpn_tcp_handle, align 8
  call void @reassembly_table_register(ptr noundef @msg_reassembly_table, ptr noundef @addresses_reassembly_table_functions)
  %8 = load i32, ptr @proto_openvpn, align 4
  %9 = call ptr @prefs_register_protocol(i32 noundef %8, ptr noundef null)
  store ptr %9, ptr %1, align 8
  %10 = load ptr, ptr %1, align 8
  call void @prefs_register_bool_preference(ptr noundef %10, ptr noundef @.str.59, ptr noundef @.str.60, ptr noundef @.str.61, ptr noundef @pref_tls_auth_override)
  %11 = load ptr, ptr %1, align 8
  call void @prefs_register_bool_preference(ptr noundef %11, ptr noundef @.str.62, ptr noundef @.str.63, ptr noundef @.str.64, ptr noundef @pref_tls_crypt_override)
  %12 = load ptr, ptr %1, align 8
  call void @prefs_register_bool_preference(ptr noundef %12, ptr noundef @.str.65, ptr noundef @.str.66, ptr noundef @.str.67, ptr noundef @pref_tls_auth)
  %13 = load ptr, ptr %1, align 8
  call void @prefs_register_uint_preference(ptr noundef %13, ptr noundef @.str.68, ptr noundef @.str.69, ptr noundef @.str.70, i32 noundef 10, ptr noundef @tls_auth_hmac_size)
  %14 = load ptr, ptr %1, align 8
  call void @prefs_register_bool_preference(ptr noundef %14, ptr noundef @.str.71, ptr noundef @.str.72, ptr noundef @.str.73, ptr noundef @pref_long_format)
  call void @llvm.lifetime.end.p0(i64 8, ptr %1) #5
  ret void
}