; Function Attrs: null_pointer_is_valid sspstrong uwtable
define hidden void @proto_register_openvpn() local_unnamed_addr #0 {
  %1 = tail call i32 @proto_register_protocol(ptr noundef nonnull @.str.54, ptr noundef nonnull @.str.55, ptr noundef nonnull @.str.56)
  store i32 %1, ptr @proto_openvpn, align 4
  tail call void @proto_register_field_array(i32 noundef %1, ptr noundef nonnull @proto_register_openvpn.hf, i32 noundef 27)
  tail call void @proto_register_subtree_array(ptr noundef nonnull @proto_register_openvpn.ett, i32 noundef 7)
  %2 = load i32, ptr @proto_openvpn, align 4
  %3 = tail call ptr @register_dissector(ptr noundef nonnull @.str.57, ptr noundef nonnull @dissect_openvpn_udp, i32 noundef %2)
  store ptr %3, ptr @openvpn_udp_handle, align 8
  %4 = load i32, ptr @proto_openvpn, align 4
  %5 = tail call ptr @register_dissector(ptr noundef nonnull @.str.58, ptr noundef nonnull @dissect_openvpn_tcp, i32 noundef %4)
  store ptr %5, ptr @openvpn_tcp_handle, align 8
  tail call void @reassembly_table_register(ptr noundef nonnull @msg_reassembly_table, ptr noundef nonnull @addresses_reassembly_table_functions)
  %6 = load i32, ptr @proto_openvpn, align 4
  %7 = tail call ptr @prefs_register_protocol(i32 noundef %6, ptr noundef null)
  tail call void @prefs_register_bool_preference(ptr noundef %7, ptr noundef nonnull @.str.59, ptr noundef nonnull @.str.60, ptr noundef nonnull @.str.61, ptr noundef nonnull @pref_tls_auth_override)
  tail call void @prefs_register_bool_preference(ptr noundef %7, ptr noundef nonnull @.str.62, ptr noundef nonnull @.str.63, ptr noundef nonnull @.str.64, ptr noundef nonnull @pref_tls_crypt_override)
  tail call void @prefs_register_bool_preference(ptr noundef %7, ptr noundef nonnull @.str.65, ptr noundef nonnull @.str.66, ptr noundef nonnull @.str.67, ptr noundef nonnull @pref_tls_auth)
  tail call void @prefs_register_uint_preference(ptr noundef %7, ptr noundef nonnull @.str.68, ptr noundef nonnull @.str.69, ptr noundef nonnull @.str.70, i32 noundef 10, ptr noundef nonnull @tls_auth_hmac_size)
  tail call void @prefs_register_bool_preference(ptr noundef %7, ptr noundef nonnull @.str.71, ptr noundef nonnull @.str.72, ptr noundef nonnull @.str.73, ptr noundef nonnull @pref_long_format)
  ret void
}